target datalayout = "e-m:e-p270:32:32-p271:32:32-p272:64:64-i64:64-i128:128-f80:128-n8:16:32:64-S128"
target triple = "x86_64-pc-linux-gnu"

@H5PL_plugin_control_mask_g = internal global i32 65535, align 4
@H5PL_allow_plugins_g = internal global i8 1, align 1

; Function Attrs: nounwind uwtable
define i32 @H5PL__set_plugin_control_mask(i32 noundef %0) #0 {
  %2 = alloca i32, align 4
  %3 = alloca i32, align 4
  store i32 %0, ptr %2, align 4
  store i32 0, ptr %3, align 4
  %4 = load i8, ptr @H5PL_allow_plugins_g, align 1
  %5 = trunc i8 %4 to i1
  br i1 %5, label %6, label %8

6:                                                ; preds = %1
  %7 = load i32, ptr %2, align 4
  store i32 %7, ptr @H5PL_plugin_control_mask_g, align 4
  br label %8

8:                                                ; preds = %6, %1
  %9 = load i32, ptr %3, align 4
  ret i32 %9
}