; Function Attrs: mustprogress nofree norecurse nosync nounwind willreturn memory(readwrite, argmem: none, inaccessiblemem: none) uwtable
define noundef i32 @H5PL__set_plugin_control_mask(i32 noundef %0) local_unnamed_addr #1 {
  %.b = load i1, ptr @H5PL_allow_plugins_g, align 1
  br i1 %.b, label %3, label %2

2:                                                ; preds = %1
  store i32 %0, ptr @H5PL_plugin_control_mask_g, align 4
  br label %3

3:                                                ; preds = %2, %1
  ret i32 0
}